target datalayout = "e-m:e-p270:32:32-p271:32:32-p272:64:64-i64:64-i128:128-f80:128-n8:16:32:64-S128"
target triple = "x86_64-pc-linux-gnu"

%struct.Vec_Int_t_ = type { i32, i32, ptr }
%struct.Vec_Wrd_t_ = type { i32, i32, ptr }

; Function Attrs: inlinehint nounwind uwtable
define internal void @Vec_IntWriteEntry(ptr noundef %0, i32 noundef %1, i32 noundef %2) #3 {
  %4 = alloca ptr, align 8
  %5 = alloca i32, align 4
  %6 = alloca i32, align 4
  store ptr %0, ptr %4, align 8, !tbaa !19
  store i32 %1, ptr %5, align 4, !tbaa !8
  store i32 %2, ptr %6, align 4, !tbaa !8
  %7 = load i32, ptr %6, align 4, !tbaa !8
  %8 = load ptr, ptr %4, align 8, !tbaa !19
  %9 = getelementptr inbounds nuw %struct.Vec_Int_t_, ptr %8, i32 0, i32 2
  %10 = load ptr, ptr %9, align 8, !tbaa !29
  %11 = load i32, ptr %5, align 4, !tbaa !8
  %12 = sext i32 %11 to i64
  %13 = getelementptr inbounds i32, ptr %10, i64 %12
  store i32 %7, ptr %13, align 4, !tbaa !8
  ret void
}

; Function Attrs: inlinehint nounwind uwtable
define internal i32 @Vec_IntEntry(ptr noundef %0, i32 noundef %1) #3 {
  %3 = alloca ptr, align 8
  %4 = alloca i32, align 4
  store ptr %0, ptr %3, align 8, !tbaa !19
  store i32 %1, ptr %4, align 4, !tbaa !8
  %5 = load ptr, ptr %3, align 8, !tbaa !19
  %6 = getelementptr inbounds nuw %struct.Vec_Int_t_, ptr %5, i32 0, i32 2
  %7 = load ptr, ptr %6, align 8, !tbaa !29
  %8 = load i32, ptr %4, align 4, !tbaa !8
  %9 = sext i32 %8 to i64
  %10 = getelementptr inbounds i32, ptr %7, i64 %9
  %11 = load i32, ptr %10, align 4, !tbaa !8
  ret i32 %11
}

; Function Attrs: inlinehint nounwind uwtable
define internal i32 @Vec_IntSize(ptr noundef %0) #3 {
  %2 = alloca ptr, align 8
  store ptr %0, ptr %2, align 8, !tbaa !19
  %3 = load ptr, ptr %2, align 8, !tbaa !19
  %4 = getelementptr inbounds nuw %struct.Vec_Int_t_, ptr %3, i32 0, i32 1
  %5 = load i32, ptr %4, align 4, !tbaa !26
  ret i32 %5
}

; Function Attrs: inlinehint nounwind uwtable
define internal void @Vec_IntClear(ptr noundef %0) #3 {
  %2 = alloca ptr, align 8
  store ptr %0, ptr %2, align 8, !tbaa !19
  %3 = load ptr, ptr %2, align 8, !tbaa !19
  %4 = getelementptr inbounds nuw %struct.Vec_Int_t_, ptr %3, i32 0, i32 1
  store i32 0, ptr %4, align 4, !tbaa !26
  ret void
}

; Function Attrs: inlinehint nounwind uwtable
define internal void @Vec_WrdClear(ptr noundef %0) #3 {
  %2 = alloca ptr, align 8
  store ptr %0, ptr %2, align 8, !tbaa !37
  %3 = load ptr, ptr %2, align 8, !tbaa !37
  %4 = getelementptr inbounds nuw %struct.Vec_Wrd_t_, ptr %3, i32 0, i32 1
  store i32 0, ptr %4, align 4, !tbaa !42
  ret void
}

; Function Attrs: nounwind uwtable
define i32 @Abc_TtGetCM5(ptr noundef %0, i32 noundef %1, ptr noundef %2, ptr noundef %3, ptr noundef %4) #0 {
  %6 = alloca ptr, align 8
  %7 = alloca i32, align 4
  %8 = alloca ptr, align 8
  %9 = alloca ptr, align 8
  %10 = alloca ptr, align 8
  %11 = alloca ptr, align 8
  %12 = alloca i32, align 4
  %13 = alloca i32, align 4
  %14 = alloca i32, align 4
  store ptr %0, ptr %6, align 8, !tbaa !3
  store i32 %1, ptr %7, align 4, !tbaa !8
  store ptr %2, ptr %8, align 8, !tbaa !19
  store ptr %3, ptr %9, align 8, !tbaa !37
  store ptr %4, ptr %10, align 8, !tbaa !19
  call void @llvm.lifetime.start.p0(i64 8, ptr %11) #12
  %15 = load ptr, ptr %6, align 8, !tbaa !3
  store ptr %15, ptr %11, align 8, !tbaa !17
  call void @llvm.lifetime.start.p0(i64 4, ptr %12) #12
  call void @llvm.lifetime.start.p0(i64 4, ptr %13) #12
  call void @llvm.lifetime.start.p0(i64 4, ptr %14) #12
  %16 = load i32, ptr %7, align 4, !tbaa !8
  %17 = sub nsw i32 %16, 5
  %18 = shl i32 1, %17
  store i32 %18, ptr %14, align 4, !tbaa !8
  %19 = load ptr, ptr %9, align 8, !tbaa !37
  call void @Vec_WrdClear(ptr noundef %19)
  %20 = load ptr, ptr %10, align 8, !tbaa !19
  call void @Vec_IntClear(ptr noundef %20)
  store i32 0, ptr %12, align 4, !tbaa !8
  br label %21

21:                                               ; preds = %35, %5
  %22 = load i32, ptr %12, align 4, !tbaa !8
  %23 = load i32, ptr %14, align 4, !tbaa !8
  %24 = icmp slt i32 %22, %23
  br i1 %24, label %25, label %38

25:                                               ; preds = %21
  %26 = load ptr, ptr %11, align 8, !tbaa !17
  %27 = load i32, ptr %12, align 4, !tbaa !8
  %28 = sext i32 %27 to i64
  %29 = getelementptr inbounds i32, ptr %26, i64 %28
  %30 = load i32, ptr %29, align 4, !tbaa !8
  %31 = load ptr, ptr %8, align 8, !tbaa !19
  %32 = load ptr, ptr %9, align 8, !tbaa !37
  %33 = load ptr, ptr %10, align 8, !tbaa !19
  %34 = call i32 @Abc_TtHashLookup5(i32 noundef %30, ptr noundef %31, ptr noundef %32, ptr noundef %33)
  br label %35

35:                                               ; preds = %25
  %36 = load i32, ptr %12, align 4, !tbaa !8
  %37 = add nsw i32 %36, 1
  store i32 %37, ptr %12, align 4, !tbaa !8
  br label %21, !llvm.loop !44

38:                                               ; preds = %21
  store i32 0, ptr %12, align 4, !tbaa !8
  br label %39

39:                                               ; preds = %53, %38
  %40 = load i32, ptr %12, align 4, !tbaa !8
  %41 = load ptr, ptr %10, align 8, !tbaa !19
  %42 = call i32 @Vec_IntSize(ptr noundef %41)
  %43 = icmp slt i32 %40, %42
  br i1 %43, label %44, label %48

44:                                               ; preds = %39
  %45 = load ptr, ptr %10, align 8, !tbaa !19
  %46 = load i32, ptr %12, align 4, !tbaa !8
  %47 = call i32 @Vec_IntEntry(ptr noundef %45, i32 noundef %46)
  store i32 %47, ptr %13, align 4, !tbaa !8
  br label %48

48:                                               ; preds = %44, %39
  %49 = phi i1 [ false, %39 ], [ true, %44 ]
  br i1 %49, label %50, label %56

50:                                               ; preds = %48
  %51 = load ptr, ptr %8, align 8, !tbaa !19
  %52 = load i32, ptr %13, align 4, !tbaa !8
  call void @Vec_IntWriteEntry(ptr noundef %51, i32 noundef %52, i32 noundef -1)
  br label %53

53:                                               ; preds = %50
  %54 = load i32, ptr %12, align 4, !tbaa !8
  %55 = add nsw i32 %54, 1
  store i32 %55, ptr %12, align 4, !tbaa !8
  br label %39, !llvm.loop !45

56:                                               ; preds = %48
  %57 = load ptr, ptr %10, align 8, !tbaa !19
  %58 = call i32 @Vec_IntSize(ptr noundef %57)
  call void @llvm.lifetime.end.p0(i64 4, ptr %14) #12
  call void @llvm.lifetime.end.p0(i64 4, ptr %13) #12
  call void @llvm.lifetime.end.p0(i64 4, ptr %12) #12
  call void @llvm.lifetime.end.p0(i64 8, ptr %11) #12
  ret i32 %58
}