; Function Attrs: nounwind uwtable
define i32 @Abc_TtGetCM5(ptr noundef readonly captures(none) %0, i32 noundef %1, ptr noundef readonly captures(none) %2, ptr noundef captures(none) initializes((4, 8)) %3, ptr noundef captures(none) initializes((4, 8)) %4) local_unnamed_addr #3 {
  %6 = add nsw i32 %1, -5
  %7 = getelementptr inbounds nuw i8, ptr %3, i64 4
  store i32 0, ptr %7, align 4, !tbaa !32
  %8 = getelementptr inbounds nuw i8, ptr %4, i64 4
  store i32 0, ptr %8, align 4, !tbaa !14
  %.not = icmp eq i32 %6, 31
  br i1 %.not, label %.critedge, label %.lr.ph.preheader

.lr.ph.preheader:                                 ; preds = %5
  %9 = shl nuw i32 1, %6
  %smax = tail call i32 @llvm.smax.i32(i32 %9, i32 1)
  %wide.trip.count = zext nneg i32 %smax to i64
  br label %.lr.ph

.preheader:                                       ; preds = %.lr.ph
  %.val1923.pre = load i32, ptr %8, align 4, !tbaa !14
  %10 = icmp sgt i32 %.val1923.pre, 0
  br i1 %10, label %.lr.ph25, label %.critedge

.lr.ph25:                                         ; preds = %.preheader
  %11 = getelementptr i8, ptr %4, i64 8
  %.val20 = load ptr, ptr %11, align 8, !tbaa !18
  %12 = getelementptr i8, ptr %2, i64 8
  %.val21 = load ptr, ptr %12, align 8, !tbaa !18
  br label %16

.lr.ph:                                           ; preds = %.lr.ph.preheader, %.lr.ph
  %indvars.iv = phi i64 [ 0, %.lr.ph.preheader ], [ %indvars.iv.next, %.lr.ph ]
  %13 = getelementptr inbounds nuw i32, ptr %0, i64 %indvars.iv
  %14 = load i32, ptr %13, align 4, !tbaa !7
  %15 = tail call i32 @Abc_TtHashLookup5(i32 noundef %14, ptr noundef %2, ptr noundef %3, ptr noundef %4)
  %indvars.iv.next = add nuw nsw i64 %indvars.iv, 1
  %exitcond.not = icmp eq i64 %indvars.iv.next, %wide.trip.count
  br i1 %exitcond.not, label %.preheader, label %.lr.ph, !llvm.loop !34

16:                                               ; preds = %.lr.ph25, %16
  %indvars.iv28 = phi i64 [ 0, %.lr.ph25 ], [ %indvars.iv.next29, %16 ]
  %17 = getelementptr inbounds nuw i32, ptr %.val20, i64 %indvars.iv28
  %18 = load i32, ptr %17, align 4, !tbaa !7
  %19 = sext i32 %18 to i64
  %20 = getelementptr inbounds i32, ptr %.val21, i64 %19
  store i32 -1, ptr %20, align 4, !tbaa !7
  %indvars.iv.next29 = add nuw nsw i64 %indvars.iv28, 1
  %.val19 = load i32, ptr %8, align 4, !tbaa !14
  %21 = sext i32 %.val19 to i64
  %22 = icmp slt i64 %indvars.iv.next29, %21
  br i1 %22, label %16, label %.critedge, !llvm.loop !35

.critedge:                                        ; preds = %16, %5, %.preheader
  %.val19.lcssa = phi i32 [ %.val1923.pre, %.preheader ], [ 0, %5 ], [ %.val19, %16 ]
  ret i32 %.val19.lcssa
}